target datalayout = "e-m:e-p270:32:32-p271:32:32-p272:64:64-i64:64-i128:128-f80:128-n8:16:32:64-S128"
target triple = "x86_64-pc-linux-gnu"

%"class.ExclusionChecker::Impl" = type <{ ptr, %"class.gmx::ArrayRef", %"class.std::function", i32, [4 x i8] }>
%"class.gmx::ArrayRef" = type { %"struct.gmx::ArrayRefIter", %"struct.gmx::ArrayRefIter" }
%"struct.gmx::ArrayRefIter" = type { ptr }
%"class.std::function" = type { %"class.std::_Function_base", ptr }
%"class.std::_Function_base" = type { %"union.std::_Any_data", ptr }
%"union.std::_Any_data" = type { %"union.std::_Nocopy_types" }
%"union.std::_Nocopy_types" = type { { i64, i64 } }
%class.anon.60 = type { ptr }
%struct.t_commrec = type <{ i8, [3 x i8], i32, i32, i32, i32, [4 x i8], ptr, ptr, i32, [4 x i8], ptr, i32, i32, %struct.gmx_nodecomm_t, %"class.std::unique_ptr.69", %"class.std::unique_ptr.77", ptr, ptr, i32, [4 x i8] }>
%struct.gmx_nodecomm_t = type { i8, ptr, i32, ptr }
%"class.std::unique_ptr.69" = type { %"struct.std::__uniq_ptr_data.70" }
%"struct.std::__uniq_ptr_data.70" = type { %"class.std::__uniq_ptr_impl.71" }
%"class.std::__uniq_ptr_impl.71" = type { %"class.std::tuple.72" }
%"class.std::tuple.72" = type { %"struct.std::_Tuple_impl.73" }
%"struct.std::_Tuple_impl.73" = type { %"struct.std::_Head_base.76" }
%"struct.std::_Head_base.76" = type { ptr }
%"class.std::unique_ptr.77" = type { %"struct.std::__uniq_ptr_data.78" }
%"struct.std::__uniq_ptr_data.78" = type { %"class.std::__uniq_ptr_impl.79" }
%"class.std::__uniq_ptr_impl.79" = type { %"class.std::tuple.80" }
%"class.std::tuple.80" = type { %"struct.std::_Tuple_impl.81" }
%"struct.std::_Tuple_impl.81" = type { %"struct.std::_Head_base.84" }
%"struct.std::_Head_base.84" = type { ptr }

@.str.2 = private unnamed_addr constant [132 x i8] c"generated/home/dtcxzyw/WorkSpace/Projects/compilers/llvm-opt-benchmark/bench/gromacs/gromacs/src/gromacs/nbnxm/exclusionchecker.cpp\00", align 1

; Function Attrs: mustprogress nounwind uwtable
define linkonce_odr noundef nonnull align 8 dereferenceable(8) ptr @_ZNK3gmx12ArrayRefIterIdEdeEv(ptr noundef nonnull align 8 dereferenceable(8) %0) #1 comdat align 2 {
  %2 = alloca ptr, align 8
  store ptr %0, ptr %2, align 8, !tbaa !62
  %3 = load ptr, ptr %2, align 8
  %4 = getelementptr inbounds nuw %"struct.gmx::ArrayRefIter", ptr %3, i32 0, i32 0
  %5 = load ptr, ptr %4, align 8, !tbaa !65
  ret ptr %5
}

; Function Attrs: mustprogress nounwind uwtable
define linkonce_odr noundef nonnull align 8 dereferenceable(8) ptr @_ZN3gmx12ArrayRefIterIdEpLEl(ptr noundef nonnull align 8 dereferenceable(8) %0, i64 noundef %1) #1 comdat align 2 {
  %3 = alloca ptr, align 8
  %4 = alloca i64, align 8
  store ptr %0, ptr %3, align 8, !tbaa !62
  store i64 %1, ptr %4, align 8, !tbaa !76
  %5 = load ptr, ptr %3, align 8
  %6 = load i64, ptr %4, align 8, !tbaa !76
  %7 = getelementptr inbounds nuw %"struct.gmx::ArrayRefIter", ptr %5, i32 0, i32 0
  %8 = load ptr, ptr %7, align 8, !tbaa !65
  %9 = getelementptr inbounds double, ptr %8, i64 %6
  store ptr %9, ptr %7, align 8, !tbaa !65
  ret ptr %5
}

; Function Attrs: mustprogress nounwind uwtable
define linkonce_odr noundef nonnull align 8 dereferenceable(8) ptr @_ZNK3gmx5boost14stl_interfaces2v118iterator_interfaceINS_12ArrayRefIterIdEESt26random_access_iterator_tagdRdPdlvE7derivedEv(ptr noundef nonnull align 1 dereferenceable(1) %0) #1 comdat align 2 {
  %2 = alloca ptr, align 8
  store ptr %0, ptr %2, align 8, !tbaa !181
  %3 = load ptr, ptr %2, align 8
  ret ptr %3
}

; Function Attrs: mustprogress nounwind uwtable
define linkonce_odr noundef nonnull align 8 dereferenceable(8) ptr @_ZNK3gmx5boost14stl_interfaces2v118iterator_interfaceINS_12ArrayRefIterIdEESt26random_access_iterator_tagdRdPdlvEixIS5_EEDTcmpLclsr3stdE7declvalIRT_EEfp_declsr3stdE7declvalISC_EEEl(ptr noundef nonnull align 1 dereferenceable(1) %0, i64 noundef %1) #1 comdat align 2 {
  %3 = alloca ptr, align 8
  %4 = alloca i64, align 8
  %5 = alloca %"struct.gmx::ArrayRefIter", align 8
  store ptr %0, ptr %3, align 8, !tbaa !181
  store i64 %1, ptr %4, align 8, !tbaa !76
  %6 = load ptr, ptr %3, align 8
  call void @llvm.lifetime.start.p0(i64 8, ptr %5) #12
  %7 = call noundef nonnull align 8 dereferenceable(8) ptr @_ZNK3gmx5boost14stl_interfaces2v118iterator_interfaceINS_12ArrayRefIterIdEESt26random_access_iterator_tagdRdPdlvE7derivedEv(ptr noundef nonnull align 1 dereferenceable(1) %6) #12
  call void @llvm.memcpy.p0.p0.i64(ptr align 8 %5, ptr align 8 %7, i64 8, i1 false)
  %8 = load i64, ptr %4, align 8, !tbaa !76
  %9 = call noundef nonnull align 8 dereferenceable(8) ptr @_ZN3gmx12ArrayRefIterIdEpLEl(ptr noundef nonnull align 8 dereferenceable(8) %5, i64 noundef %8) #12
  %10 = call noundef nonnull align 8 dereferenceable(8) ptr @_ZNK3gmx12ArrayRefIterIdEdeEv(ptr noundef nonnull align 8 dereferenceable(8) %5) #12
  call void @llvm.lifetime.end.p0(i64 8, ptr %5) #12
  ret ptr %10
}

; Function Attrs: mustprogress uwtable
define void @_ZN16ExclusionChecker4Impl5checkEi(ptr noundef nonnull align 8 dereferenceable(60) %0, i32 noundef %1) #0 align 2 {
  %3 = alloca ptr, align 8
  %4 = alloca i32, align 4
  store ptr %0, ptr %3, align 8, !tbaa !4
  store i32 %1, ptr %4, align 4, !tbaa !27
  %5 = load ptr, ptr %3, align 8
  %6 = load i32, ptr %4, align 4, !tbaa !27
  %7 = getelementptr inbounds nuw %"class.ExclusionChecker::Impl", ptr %5, i32 0, i32 3
  %8 = load i32, ptr %7, align 8, !tbaa !21
  %9 = icmp ne i32 %6, %8
  br i1 %9, label %10, label %33

10:                                               ; preds = %2
  %11 = getelementptr inbounds nuw %"class.ExclusionChecker::Impl", ptr %5, i32 0, i32 0
  %12 = load ptr, ptr %11, align 8, !tbaa !13
  %13 = getelementptr inbounds nuw %struct.t_commrec, ptr %12, i32 0, i32 8
  %14 = load ptr, ptr %13, align 8, !tbaa !178
  %15 = getelementptr inbounds nuw %"class.ExclusionChecker::Impl", ptr %5, i32 0, i32 0
  %16 = load ptr, ptr %15, align 8, !tbaa !13
  %17 = getelementptr inbounds nuw %struct.t_commrec, ptr %16, i32 0, i32 13
  %18 = load i32, ptr %17, align 4, !tbaa !179
  %19 = icmp eq i32 %18, 0
  br i1 %19, label %27, label %20

20:                                               ; preds = %10
  %21 = getelementptr inbounds nuw %"class.ExclusionChecker::Impl", ptr %5, i32 0, i32 0
  %22 = load ptr, ptr %21, align 8, !tbaa !13
  %23 = getelementptr inbounds nuw %struct.t_commrec, ptr %22, i32 0, i32 12
  %24 = load i32, ptr %23, align 8, !tbaa !180
  %25 = icmp sgt i32 %24, 1
  %26 = xor i1 %25, true
  br label %27

27:                                               ; preds = %20, %10
  %28 = phi i1 [ true, %10 ], [ %26, %20 ]
  %29 = getelementptr inbounds nuw %"class.ExclusionChecker::Impl", ptr %5, i32 0, i32 3
  %30 = load i32, ptr %29, align 8, !tbaa !21
  %31 = load i32, ptr %4, align 4, !tbaa !27
  %32 = sub nsw i32 %30, %31
  call void (i32, ptr, i32, ptr, i1, ptr, ...) @_Z20gmx_fatal_collectiveiPKciP10tmpi_comm_bS0_z(i32 noundef 0, ptr noundef @.str.2, i32 noundef 195, ptr noundef %14, i1 noundef zeroext %28, ptr noundef @.str.3, i32 noundef %32) #16
  unreachable

33:                                               ; preds = %2
  ret void
}

; Function Attrs: mustprogress nounwind uwtable
define linkonce_odr noundef nonnull align 8 dereferenceable(8) ptr @_ZNK3gmx8ArrayRefIdEixEm(ptr noundef nonnull align 8 dereferenceable(16) %0, i64 noundef %1) #1 comdat align 2 {
  %3 = alloca ptr, align 8
  %4 = alloca i64, align 8
  store ptr %0, ptr %3, align 8, !tbaa !22
  store i64 %1, ptr %4, align 8, !tbaa !76
  %5 = load ptr, ptr %3, align 8
  %6 = getelementptr inbounds nuw %"class.gmx::ArrayRef", ptr %5, i32 0, i32 0
  %7 = load i64, ptr %4, align 8, !tbaa !76
  %8 = call noundef nonnull align 8 dereferenceable(8) ptr @_ZNK3gmx5boost14stl_interfaces2v118iterator_interfaceINS_12ArrayRefIterIdEESt26random_access_iterator_tagdRdPdlvEixIS5_EEDTcmpLclsr3stdE7declvalIRT_EEfp_declsr3stdE7declvalISC_EEEl(ptr noundef nonnull align 1 dereferenceable(1) %6, i64 noundef %7) #12
  ret ptr %8
}

; Function Attrs: inlinehint mustprogress uwtable
define internal void @"_ZZN16ExclusionCheckerC1EPK9t_commrecRK10gmx_mtop_tPN3gmx25ObservablesReducerBuilderEENK3$_1clEl"(ptr noundef nonnull align 8 dereferenceable(8) %0, i64 noundef %1) #5 align 2 {
  %3 = alloca ptr, align 8
  %4 = alloca i64, align 8
  store ptr %0, ptr %3, align 8, !tbaa !136
  store i64 %1, ptr %4, align 8, !tbaa !76
  %5 = load ptr, ptr %3, align 8
  %6 = getelementptr inbounds nuw %class.anon.60, ptr %5, i32 0, i32 0
  %7 = load ptr, ptr %6, align 8, !tbaa !112
  %8 = getelementptr inbounds nuw %class.anon.60, ptr %5, i32 0, i32 0
  %9 = load ptr, ptr %8, align 8, !tbaa !112
  %10 = getelementptr inbounds nuw %"class.ExclusionChecker::Impl", ptr %9, i32 0, i32 1
  %11 = call noundef nonnull align 8 dereferenceable(8) ptr @_ZNK3gmx8ArrayRefIdEixEm(ptr noundef nonnull align 8 dereferenceable(16) %10, i64 noundef 0)
  %12 = load double, ptr %11, align 8, !tbaa !176
  %13 = fptosi double %12 to i32
  call void @_ZN16ExclusionChecker4Impl5checkEi(ptr noundef nonnull align 8 dereferenceable(60) %7, i32 noundef %13)
  ret void
}

; Function Attrs: mustprogress nounwind uwtable
define linkonce_odr noundef ptr @_ZNKSt9_Any_data9_M_accessEv(ptr noundef nonnull align 8 dereferenceable(16) %0) #1 comdat align 2 {
  %2 = alloca ptr, align 8
  store ptr %0, ptr %2, align 8, !tbaa !165
  %3 = load ptr, ptr %2, align 8
  %4 = getelementptr inbounds [16 x i8], ptr %3, i64 0, i64 0
  ret ptr %4
}

; Function Attrs: mustprogress uwtable
define internal void @"_ZSt13__invoke_implIvRZN16ExclusionCheckerC1EPK9t_commrecRK10gmx_mtop_tPN3gmx25ObservablesReducerBuilderEE3$_1JlEET_St14__invoke_otherOT0_DpOT1_"(ptr noundef nonnull align 8 dereferenceable(8) %0, ptr noundef nonnull align 8 dereferenceable(8) %1) #0 {
  %3 = alloca ptr, align 8
  %4 = alloca ptr, align 8
  store ptr %0, ptr %3, align 8, !tbaa !136
  store ptr %1, ptr %4, align 8, !tbaa !174
  %5 = load ptr, ptr %3, align 8, !tbaa !136
  %6 = load ptr, ptr %4, align 8, !tbaa !174
  %7 = load i64, ptr %6, align 8, !tbaa !76
  call void @"_ZZN16ExclusionCheckerC1EPK9t_commrecRK10gmx_mtop_tPN3gmx25ObservablesReducerBuilderEENK3$_1clEl"(ptr noundef nonnull align 8 dereferenceable(8) %5, i64 noundef %7)
  ret void
}

; Function Attrs: mustprogress nounwind uwtable
define internal noundef nonnull align 8 dereferenceable(8) ptr @"_ZNKSt9_Any_data9_M_accessIZN16ExclusionCheckerC1EPK9t_commrecRK10gmx_mtop_tPN3gmx25ObservablesReducerBuilderEE3$_1EERKT_v"(ptr noundef nonnull align 8 dereferenceable(16) %0) #1 align 2 {
  %2 = alloca ptr, align 8
  store ptr %0, ptr %2, align 8, !tbaa !165
  %3 = load ptr, ptr %2, align 8
  %4 = call noundef ptr @_ZNKSt9_Any_data9_M_accessEv(ptr noundef nonnull align 8 dereferenceable(16) %3) #12
  ret ptr %4
}

; Function Attrs: mustprogress uwtable
define internal void @"_ZSt10__invoke_rIvRZN16ExclusionCheckerC1EPK9t_commrecRK10gmx_mtop_tPN3gmx25ObservablesReducerBuilderEE3$_1JlEENSt9enable_ifIX16is_invocable_r_vIT_T0_DpT1_EESD_E4typeEOSE_DpOSF_"(ptr noundef nonnull align 8 dereferenceable(8) %0, ptr noundef nonnull align 8 dereferenceable(8) %1) #0 {
  %3 = alloca ptr, align 8
  %4 = alloca ptr, align 8
  store ptr %0, ptr %3, align 8, !tbaa !136
  store ptr %1, ptr %4, align 8, !tbaa !174
  %5 = load ptr, ptr %3, align 8, !tbaa !136
  %6 = load ptr, ptr %4, align 8, !tbaa !174
  call void @"_ZSt13__invoke_implIvRZN16ExclusionCheckerC1EPK9t_commrecRK10gmx_mtop_tPN3gmx25ObservablesReducerBuilderEE3$_1JlEET_St14__invoke_otherOT0_DpOT1_"(ptr noundef nonnull align 8 dereferenceable(8) %5, ptr noundef nonnull align 8 dereferenceable(8) %6)
  ret void
}

; Function Attrs: mustprogress nounwind uwtable
define internal noundef ptr @"_ZNSt14_Function_base13_Base_managerIZN16ExclusionCheckerC1EPK9t_commrecRK10gmx_mtop_tPN3gmx25ObservablesReducerBuilderEE3$_1E14_M_get_pointerERKSt9_Any_data"(ptr noundef nonnull align 8 dereferenceable(16) %0) #1 align 2 {
  %2 = alloca ptr, align 8
  %3 = alloca ptr, align 8
  store ptr %0, ptr %2, align 8, !tbaa !165
  call void @llvm.lifetime.start.p0(i64 8, ptr %3) #12
  %4 = load ptr, ptr %2, align 8, !tbaa !165
  %5 = call noundef nonnull align 8 dereferenceable(8) ptr @"_ZNKSt9_Any_data9_M_accessIZN16ExclusionCheckerC1EPK9t_commrecRK10gmx_mtop_tPN3gmx25ObservablesReducerBuilderEE3$_1EERKT_v"(ptr noundef nonnull align 8 dereferenceable(16) %4) #12
  store ptr %5, ptr %3, align 8, !tbaa !136
  %6 = load ptr, ptr %3, align 8, !tbaa !136
  call void @llvm.lifetime.end.p0(i64 8, ptr %3) #12
  ret ptr %6
}

; Function Attrs: mustprogress uwtable
define internal void @"_ZNSt17_Function_handlerIFvlEZN16ExclusionCheckerC1EPK9t_commrecRK10gmx_mtop_tPN3gmx25ObservablesReducerBuilderEE3$_1E9_M_invokeERKSt9_Any_dataOl"(ptr noundef nonnull align 8 dereferenceable(16) %0, ptr noundef nonnull align 8 dereferenceable(8) %1) #0 align 2 {
  %3 = alloca ptr, align 8
  %4 = alloca ptr, align 8
  store ptr %0, ptr %3, align 8, !tbaa !165
  store ptr %1, ptr %4, align 8, !tbaa !174
  %5 = load ptr, ptr %3, align 8, !tbaa !165
  %6 = call noundef ptr @"_ZNSt14_Function_base13_Base_managerIZN16ExclusionCheckerC1EPK9t_commrecRK10gmx_mtop_tPN3gmx25ObservablesReducerBuilderEE3$_1E14_M_get_pointerERKSt9_Any_data"(ptr noundef nonnull align 8 dereferenceable(16) %5) #12
  %7 = load ptr, ptr %4, align 8, !tbaa !174
  call void @"_ZSt10__invoke_rIvRZN16ExclusionCheckerC1EPK9t_commrecRK10gmx_mtop_tPN3gmx25ObservablesReducerBuilderEE3$_1JlEENSt9enable_ifIX16is_invocable_r_vIT_T0_DpT1_EESD_E4typeEOSE_DpOSF_"(ptr noundef nonnull align 8 dereferenceable(8) %6, ptr noundef nonnull align 8 dereferenceable(8) %7)
  ret void
}