; Function Attrs: mustprogress uwtable
define internal void @"_ZNSt17_Function_handlerIFvlEZN16ExclusionCheckerC1EPK9t_commrecRK10gmx_mtop_tPN3gmx25ObservablesReducerBuilderEE3$_1E9_M_invokeERKSt9_Any_dataOl"(ptr noundef nonnull readonly align 8 captures(none) dereferenceable(16) %0, ptr nonnull readonly align 8 captures(none) %1) #6 align 2 {
  %.val = load ptr, ptr %0, align 8, !tbaa !94
  %3 = getelementptr inbounds nuw i8, ptr %.val, i64 8
  %4 = load i64, ptr %3, align 8
  %5 = inttoptr i64 %4 to ptr
  %6 = load double, ptr %5, align 8, !tbaa !96
  %7 = fptosi double %6 to i32
  %8 = getelementptr inbounds nuw i8, ptr %.val, i64 56
  %9 = load i32, ptr %8, align 8, !tbaa !55
  %.not.i.i.i.i = icmp eq i32 %9, %7
  br i1 %.not.i.i.i.i, label %"_ZSt10__invoke_rIvRZN16ExclusionCheckerC1EPK9t_commrecRK10gmx_mtop_tPN3gmx25ObservablesReducerBuilderEE3$_1JlEENSt9enable_ifIX16is_invocable_r_vIT_T0_DpT1_EESD_E4typeEOSE_DpOSF_.exit", label %10

10:                                               ; preds = %2
  %11 = load ptr, ptr %.val, align 8, !tbaa !4
  %12 = getelementptr inbounds nuw i8, ptr %11, i64 32
  %13 = load ptr, ptr %12, align 8, !tbaa !98
  %14 = getelementptr inbounds nuw i8, ptr %11, i64 60
  %15 = load i32, ptr %14, align 4, !tbaa !99
  %16 = icmp eq i32 %15, 0
  br i1 %16, label %21, label %17

17:                                               ; preds = %10
  %18 = getelementptr inbounds nuw i8, ptr %11, i64 56
  %19 = load i32, ptr %18, align 8, !tbaa !100
  %20 = icmp slt i32 %19, 2
  br label %21

21:                                               ; preds = %17, %10
  %22 = phi i1 [ true, %10 ], [ %20, %17 ]
  %23 = sub nsw i32 %9, %7
  tail call void (i32, ptr, i32, ptr, i1, ptr, ...) @_Z20gmx_fatal_collectiveiPKciP10tmpi_comm_bS0_z(i32 noundef 0, ptr noundef nonnull @.str.2, i32 noundef 195, ptr noundef %13, i1 noundef zeroext %22, ptr noundef nonnull @.str.3, i32 noundef %23) #18
  unreachable

"_ZSt10__invoke_rIvRZN16ExclusionCheckerC1EPK9t_commrecRK10gmx_mtop_tPN3gmx25ObservablesReducerBuilderEE3$_1JlEENSt9enable_ifIX16is_invocable_r_vIT_T0_DpT1_EESD_E4typeEOSE_DpOSF_.exit": ; preds = %2
  ret void
}